target datalayout = "e-m:e-p270:32:32-p271:32:32-p272:64:64-i64:64-i128:128-f80:128-n8:16:32:64-S128"
target triple = "x86_64-pc-linux-gnu"

%struct.RelFileLocator = type { i32, i32, i32 }
%struct.xl_replorigin_drop = type { i16 }
%struct.LWLock = type { i16, %struct.pg_atomic_uint32, %struct.proclist_head }
%struct.pg_atomic_uint32 = type { i32 }
%struct.proclist_head = type { i32, i32 }
%struct.ReplicationState = type { i16, i64, i64, i32, %struct.ConditionVariable, %struct.LWLock }
%struct.ConditionVariable = type { i8, %struct.proclist_head }
%struct.XLogReaderState = type { %struct.XLogReaderRoutine, i64, ptr, i64, i64, i64, i64, i64, i64, i64, i64, ptr, ptr, i64, i8, ptr, ptr, ptr, ptr, ptr, i32, %struct.WALSegmentContext, %struct.WALOpenSegment, i32, i64, i32, i64, i32, i64, i32, ptr, i32, ptr, i8, i8 }
%struct.XLogReaderRoutine = type { ptr, ptr, ptr }
%struct.WALSegmentContext = type { [1024 x i8], i32 }
%struct.WALOpenSegment = type { i32, i64, i32 }
%struct.DecodedXLogRecord = type { i64, i8, ptr, i64, i64, %struct.XLogRecord, i16, i32, ptr, i32, i32, [0 x %struct.DecodedBkpBlock] }
%struct.XLogRecord = type { i32, i32, i64, i8, i8, i32 }
%struct.DecodedBkpBlock = type { i8, %struct.RelFileLocator, i32, i32, i32, i8, i8, i8, ptr, i16, i16, i16, i8, i8, ptr, i16, i16 }
%struct.xl_replorigin_set = type { i64, i16, i8 }

@.str.1 = private unnamed_addr constant [9 x i8] c"origin.c\00", align 1
@max_replication_slots = external global i32, align 4
@replication_states = internal global ptr null, align 8
@.str.20 = private unnamed_addr constant [36 x i8] c"replorigin_redo: unknown op code %u\00", align 1
@__func__.replorigin_redo = private unnamed_addr constant [16 x i8] c"replorigin_redo\00", align 1

; Function Attrs: nounwind uwtable
define dso_local void @replorigin_redo(ptr noundef %0) #0 {
  %2 = alloca ptr, align 8
  %3 = alloca i8, align 1
  %4 = alloca ptr, align 8
  %5 = alloca ptr, align 8
  %6 = alloca i32, align 4
  %7 = alloca ptr, align 8
  %8 = alloca i32, align 4
  store ptr %0, ptr %2, align 8
  call void @llvm.lifetime.start.p0(i64 1, ptr %3) #9
  %9 = load ptr, ptr %2, align 8
  %10 = getelementptr inbounds nuw %struct.XLogReaderState, ptr %9, i32 0, i32 11
  %11 = load ptr, ptr %10, align 8
  %12 = getelementptr inbounds nuw %struct.DecodedXLogRecord, ptr %11, i32 0, i32 5
  %13 = getelementptr inbounds nuw %struct.XLogRecord, ptr %12, i32 0, i32 3
  %14 = load i8, ptr %13, align 8
  %15 = zext i8 %14 to i32
  %16 = and i32 %15, -16
  %17 = trunc i32 %16 to i8
  store i8 %17, ptr %3, align 1
  %18 = load i8, ptr %3, align 1
  %19 = zext i8 %18 to i32
  switch i32 %19, label %78 [
    i32 0, label %20
    i32 16, label %39
  ]

20:                                               ; preds = %1
  call void @llvm.lifetime.start.p0(i64 8, ptr %4) #9
  %21 = load ptr, ptr %2, align 8
  %22 = getelementptr inbounds nuw %struct.XLogReaderState, ptr %21, i32 0, i32 11
  %23 = load ptr, ptr %22, align 8
  %24 = getelementptr inbounds nuw %struct.DecodedXLogRecord, ptr %23, i32 0, i32 8
  %25 = load ptr, ptr %24, align 8
  store ptr %25, ptr %4, align 8
  %26 = load ptr, ptr %4, align 8
  %27 = getelementptr inbounds nuw %struct.xl_replorigin_set, ptr %26, i32 0, i32 1
  %28 = load i16, ptr %27, align 8
  %29 = load ptr, ptr %4, align 8
  %30 = getelementptr inbounds nuw %struct.xl_replorigin_set, ptr %29, i32 0, i32 0
  %31 = load i64, ptr %30, align 8
  %32 = load ptr, ptr %2, align 8
  %33 = getelementptr inbounds nuw %struct.XLogReaderState, ptr %32, i32 0, i32 4
  %34 = load i64, ptr %33, align 8
  %35 = load ptr, ptr %4, align 8
  %36 = getelementptr inbounds nuw %struct.xl_replorigin_set, ptr %35, i32 0, i32 2
  %37 = load i8, ptr %36, align 2, !range !4, !noundef !5
  %38 = trunc i8 %37 to i1
  call void @replorigin_advance(i16 noundef zeroext %28, i64 noundef %31, i64 noundef %34, i1 noundef zeroext %38, i1 noundef zeroext false)
  call void @llvm.lifetime.end.p0(i64 8, ptr %4) #9
  br label %91

39:                                               ; preds = %1
  call void @llvm.lifetime.start.p0(i64 8, ptr %5) #9
  call void @llvm.lifetime.start.p0(i64 4, ptr %6) #9
  %40 = load ptr, ptr %2, align 8
  %41 = getelementptr inbounds nuw %struct.XLogReaderState, ptr %40, i32 0, i32 11
  %42 = load ptr, ptr %41, align 8
  %43 = getelementptr inbounds nuw %struct.DecodedXLogRecord, ptr %42, i32 0, i32 8
  %44 = load ptr, ptr %43, align 8
  store ptr %44, ptr %5, align 8
  store i32 0, ptr %6, align 4
  br label %45

45:                                               ; preds = %74, %39
  %46 = load i32, ptr %6, align 4
  %47 = load i32, ptr @max_replication_slots, align 4
  %48 = icmp slt i32 %46, %47
  br i1 %48, label %49, label %77

49:                                               ; preds = %45
  call void @llvm.lifetime.start.p0(i64 8, ptr %7) #9
  %50 = load ptr, ptr @replication_states, align 8
  %51 = load i32, ptr %6, align 4
  %52 = sext i32 %51 to i64
  %53 = getelementptr inbounds %struct.ReplicationState, ptr %50, i64 %52
  store ptr %53, ptr %7, align 8
  %54 = load ptr, ptr %7, align 8
  %55 = getelementptr inbounds nuw %struct.ReplicationState, ptr %54, i32 0, i32 0
  %56 = load i16, ptr %55, align 8
  %57 = zext i16 %56 to i32
  %58 = load ptr, ptr %5, align 8
  %59 = getelementptr inbounds nuw %struct.xl_replorigin_drop, ptr %58, i32 0, i32 0
  %60 = load i16, ptr %59, align 2
  %61 = zext i16 %60 to i32
  %62 = icmp eq i32 %57, %61
  br i1 %62, label %63, label %70

63:                                               ; preds = %49
  %64 = load ptr, ptr %7, align 8
  %65 = getelementptr inbounds nuw %struct.ReplicationState, ptr %64, i32 0, i32 0
  store i16 0, ptr %65, align 8
  %66 = load ptr, ptr %7, align 8
  %67 = getelementptr inbounds nuw %struct.ReplicationState, ptr %66, i32 0, i32 1
  store i64 0, ptr %67, align 8
  %68 = load ptr, ptr %7, align 8
  %69 = getelementptr inbounds nuw %struct.ReplicationState, ptr %68, i32 0, i32 2
  store i64 0, ptr %69, align 8
  store i32 3, ptr %8, align 4
  br label %71

70:                                               ; preds = %49
  store i32 0, ptr %8, align 4
  br label %71

71:                                               ; preds = %70, %63
  call void @llvm.lifetime.end.p0(i64 8, ptr %7) #9
  %72 = load i32, ptr %8, align 4
  switch i32 %72, label %92 [
    i32 0, label %73
    i32 3, label %77
  ]

73:                                               ; preds = %71
  br label %74

74:                                               ; preds = %73
  %75 = load i32, ptr %6, align 4
  %76 = add i32 %75, 1
  store i32 %76, ptr %6, align 4
  br label %45, !llvm.loop !12

77:                                               ; preds = %71, %45
  store i32 2, ptr %8, align 4
  call void @llvm.lifetime.end.p0(i64 4, ptr %6) #9
  call void @llvm.lifetime.end.p0(i64 8, ptr %5) #9
  br label %91

78:                                               ; preds = %1
  br label %79

79:                                               ; preds = %78
  br i1 true, label %80, label %82

80:                                               ; preds = %79
  %81 = call zeroext i1 @errstart_cold(i32 noundef 23, ptr noundef null) #10
  br i1 %81, label %84, label %88

82:                                               ; preds = %79
  %83 = call zeroext i1 @errstart(i32 noundef 23, ptr noundef null)
  br i1 %83, label %84, label %88

84:                                               ; preds = %82, %80
  %85 = load i8, ptr %3, align 1
  %86 = zext i8 %85 to i32
  %87 = call i32 (ptr, ...) @errmsg_internal(ptr noundef @.str.20, i32 noundef %86)
  call void @errfinish(ptr noundef @.str.1, i32 noundef 872, ptr noundef @__func__.replorigin_redo)
  br label %88

88:                                               ; preds = %84, %82, %80
  unreachable

89:                                               ; No predecessors!
  br label %90

90:                                               ; preds = %89
  br label %91

91:                                               ; preds = %90, %77, %20
  call void @llvm.lifetime.end.p0(i64 1, ptr %3) #9
  ret void

92:                                               ; preds = %71
  unreachable
}